target datalayout = "e-m:e-p270:32:32-p271:32:32-p272:64:64-i64:64-i128:128-f80:128-n8:16:32:64-S128"
target triple = "x86_64-pc-linux-gnu"

%union.ma_biquad_coefficient = type { float }
%struct.ma_hpf1 = type { i32, i32, %union.ma_biquad_coefficient, ptr, ptr, i32 }

; Function Attrs: alwaysinline nounwind uwtable
define internal void @ma_hpf1_process_pcm_frame_s16(ptr noundef %0, ptr noundef %1, ptr noundef %2) #7 {
  %4 = alloca ptr, align 8
  %5 = alloca ptr, align 8
  %6 = alloca ptr, align 8
  %7 = alloca i32, align 4
  %8 = alloca i32, align 4
  %9 = alloca i32, align 4
  %10 = alloca i32, align 4
  %11 = alloca i32, align 4
  %12 = alloca i32, align 4
  %13 = alloca i32, align 4
  store ptr %0, ptr %4, align 8, !tbaa !25
  store ptr %1, ptr %5, align 8, !tbaa !360
  store ptr %2, ptr %6, align 8, !tbaa !360
  call void @llvm.lifetime.start.p0(i64 4, ptr %7) #16
  call void @llvm.lifetime.start.p0(i64 4, ptr %8) #16
  %14 = load ptr, ptr %4, align 8, !tbaa !25
  %15 = getelementptr inbounds nuw %struct.ma_hpf1, ptr %14, i32 0, i32 1
  %16 = load i32, ptr %15, align 4, !tbaa !438
  store i32 %16, ptr %8, align 4, !tbaa !8
  call void @llvm.lifetime.start.p0(i64 4, ptr %9) #16
  %17 = load ptr, ptr %4, align 8, !tbaa !25
  %18 = getelementptr inbounds nuw %struct.ma_hpf1, ptr %17, i32 0, i32 2
  %19 = load i32, ptr %18, align 8, !tbaa !14
  %20 = sub nsw i32 16384, %19
  store i32 %20, ptr %9, align 4, !tbaa !8
  call void @llvm.lifetime.start.p0(i64 4, ptr %10) #16
  %21 = load i32, ptr %9, align 4, !tbaa !8
  %22 = sub nsw i32 16384, %21
  store i32 %22, ptr %10, align 4, !tbaa !8
  %23 = load i32, ptr %8, align 4, !tbaa !8
  %24 = icmp ugt i32 %23, 0
  call void @llvm.assume(i1 %24)
  store i32 0, ptr %7, align 4, !tbaa !8
  br label %25

25:                                               ; preds = %64, %3
  %26 = load i32, ptr %7, align 4, !tbaa !8
  %27 = load i32, ptr %8, align 4, !tbaa !8
  %28 = icmp ult i32 %26, %27
  br i1 %28, label %29, label %67

29:                                               ; preds = %25
  call void @llvm.lifetime.start.p0(i64 4, ptr %11) #16
  %30 = load ptr, ptr %4, align 8, !tbaa !25
  %31 = getelementptr inbounds nuw %struct.ma_hpf1, ptr %30, i32 0, i32 3
  %32 = load ptr, ptr %31, align 8, !tbaa !436
  %33 = load i32, ptr %7, align 4, !tbaa !8
  %34 = zext i32 %33 to i64
  %35 = getelementptr inbounds nuw %union.ma_biquad_coefficient, ptr %32, i64 %34
  %36 = load i32, ptr %35, align 4, !tbaa !14
  store i32 %36, ptr %11, align 4, !tbaa !8
  call void @llvm.lifetime.start.p0(i64 4, ptr %12) #16
  %37 = load ptr, ptr %6, align 8, !tbaa !360
  %38 = load i32, ptr %7, align 4, !tbaa !8
  %39 = zext i32 %38 to i64
  %40 = getelementptr inbounds nuw i16, ptr %37, i64 %39
  %41 = load i16, ptr %40, align 2, !tbaa !89
  %42 = sext i16 %41 to i32
  store i32 %42, ptr %12, align 4, !tbaa !8
  call void @llvm.lifetime.start.p0(i64 4, ptr %13) #16
  %43 = load i32, ptr %10, align 4, !tbaa !8
  %44 = load i32, ptr %12, align 4, !tbaa !8
  %45 = mul nsw i32 %43, %44
  %46 = load i32, ptr %9, align 4, !tbaa !8
  %47 = load i32, ptr %11, align 4, !tbaa !8
  %48 = mul nsw i32 %46, %47
  %49 = sub nsw i32 %45, %48
  %50 = ashr i32 %49, 14
  store i32 %50, ptr %13, align 4, !tbaa !8
  %51 = load i32, ptr %13, align 4, !tbaa !8
  %52 = trunc i32 %51 to i16
  %53 = load ptr, ptr %5, align 8, !tbaa !360
  %54 = load i32, ptr %7, align 4, !tbaa !8
  %55 = zext i32 %54 to i64
  %56 = getelementptr inbounds nuw i16, ptr %53, i64 %55
  store i16 %52, ptr %56, align 2, !tbaa !89
  %57 = load i32, ptr %13, align 4, !tbaa !8
  %58 = load ptr, ptr %4, align 8, !tbaa !25
  %59 = getelementptr inbounds nuw %struct.ma_hpf1, ptr %58, i32 0, i32 3
  %60 = load ptr, ptr %59, align 8, !tbaa !436
  %61 = load i32, ptr %7, align 4, !tbaa !8
  %62 = zext i32 %61 to i64
  %63 = getelementptr inbounds nuw %union.ma_biquad_coefficient, ptr %60, i64 %62
  store i32 %57, ptr %63, align 4, !tbaa !14
  call void @llvm.lifetime.end.p0(i64 4, ptr %13) #16
  call void @llvm.lifetime.end.p0(i64 4, ptr %12) #16
  call void @llvm.lifetime.end.p0(i64 4, ptr %11) #16
  br label %64

64:                                               ; preds = %29
  %65 = load i32, ptr %7, align 4, !tbaa !8
  %66 = add i32 %65, 1
  store i32 %66, ptr %7, align 4, !tbaa !8
  br label %25, !llvm.loop !486

67:                                               ; preds = %25
  call void @llvm.lifetime.end.p0(i64 4, ptr %10) #16
  call void @llvm.lifetime.end.p0(i64 4, ptr %9) #16
  call void @llvm.lifetime.end.p0(i64 4, ptr %8) #16
  call void @llvm.lifetime.end.p0(i64 4, ptr %7) #16
  ret void
}

; Function Attrs: alwaysinline nounwind uwtable
define internal void @ma_hpf1_process_pcm_frame_f32(ptr noundef %0, ptr noundef %1, ptr noundef %2) #7 {
  %4 = alloca ptr, align 8
  %5 = alloca ptr, align 8
  %6 = alloca ptr, align 8
  %7 = alloca i32, align 4
  %8 = alloca i32, align 4
  %9 = alloca float, align 4
  %10 = alloca float, align 4
  %11 = alloca float, align 4
  %12 = alloca float, align 4
  %13 = alloca float, align 4
  store ptr %0, ptr %4, align 8, !tbaa !25
  store ptr %1, ptr %5, align 8, !tbaa !353
  store ptr %2, ptr %6, align 8, !tbaa !353
  call void @llvm.lifetime.start.p0(i64 4, ptr %7) #16
  call void @llvm.lifetime.start.p0(i64 4, ptr %8) #16
  %14 = load ptr, ptr %4, align 8, !tbaa !25
  %15 = getelementptr inbounds nuw %struct.ma_hpf1, ptr %14, i32 0, i32 1
  %16 = load i32, ptr %15, align 4, !tbaa !438
  store i32 %16, ptr %8, align 4, !tbaa !8
  call void @llvm.lifetime.start.p0(i64 4, ptr %9) #16
  %17 = load ptr, ptr %4, align 8, !tbaa !25
  %18 = getelementptr inbounds nuw %struct.ma_hpf1, ptr %17, i32 0, i32 2
  %19 = load float, ptr %18, align 8, !tbaa !14
  %20 = fsub float 1.000000e+00, %19
  store float %20, ptr %9, align 4, !tbaa !339
  call void @llvm.lifetime.start.p0(i64 4, ptr %10) #16
  %21 = load float, ptr %9, align 4, !tbaa !339
  %22 = fsub float 1.000000e+00, %21
  store float %22, ptr %10, align 4, !tbaa !339
  %23 = load i32, ptr %8, align 4, !tbaa !8
  %24 = icmp ugt i32 %23, 0
  call void @llvm.assume(i1 %24)
  store i32 0, ptr %7, align 4, !tbaa !8
  br label %25

25:                                               ; preds = %61, %3
  %26 = load i32, ptr %7, align 4, !tbaa !8
  %27 = load i32, ptr %8, align 4, !tbaa !8
  %28 = icmp ult i32 %26, %27
  br i1 %28, label %29, label %64

29:                                               ; preds = %25
  call void @llvm.lifetime.start.p0(i64 4, ptr %11) #16
  %30 = load ptr, ptr %4, align 8, !tbaa !25
  %31 = getelementptr inbounds nuw %struct.ma_hpf1, ptr %30, i32 0, i32 3
  %32 = load ptr, ptr %31, align 8, !tbaa !436
  %33 = load i32, ptr %7, align 4, !tbaa !8
  %34 = zext i32 %33 to i64
  %35 = getelementptr inbounds nuw %union.ma_biquad_coefficient, ptr %32, i64 %34
  %36 = load float, ptr %35, align 4, !tbaa !14
  store float %36, ptr %11, align 4, !tbaa !339
  call void @llvm.lifetime.start.p0(i64 4, ptr %12) #16
  %37 = load ptr, ptr %6, align 8, !tbaa !353
  %38 = load i32, ptr %7, align 4, !tbaa !8
  %39 = zext i32 %38 to i64
  %40 = getelementptr inbounds nuw float, ptr %37, i64 %39
  %41 = load float, ptr %40, align 4, !tbaa !339
  store float %41, ptr %12, align 4, !tbaa !339
  call void @llvm.lifetime.start.p0(i64 4, ptr %13) #16
  %42 = load float, ptr %10, align 4, !tbaa !339
  %43 = load float, ptr %12, align 4, !tbaa !339
  %44 = load float, ptr %9, align 4, !tbaa !339
  %45 = load float, ptr %11, align 4, !tbaa !339
  %46 = fmul float %44, %45
  %47 = fneg float %46
  %48 = call float @llvm.fmuladd.f32(float %42, float %43, float %47)
  store float %48, ptr %13, align 4, !tbaa !339
  %49 = load float, ptr %13, align 4, !tbaa !339
  %50 = load ptr, ptr %5, align 8, !tbaa !353
  %51 = load i32, ptr %7, align 4, !tbaa !8
  %52 = zext i32 %51 to i64
  %53 = getelementptr inbounds nuw float, ptr %50, i64 %52
  store float %49, ptr %53, align 4, !tbaa !339
  %54 = load float, ptr %13, align 4, !tbaa !339
  %55 = load ptr, ptr %4, align 8, !tbaa !25
  %56 = getelementptr inbounds nuw %struct.ma_hpf1, ptr %55, i32 0, i32 3
  %57 = load ptr, ptr %56, align 8, !tbaa !436
  %58 = load i32, ptr %7, align 4, !tbaa !8
  %59 = zext i32 %58 to i64
  %60 = getelementptr inbounds nuw %union.ma_biquad_coefficient, ptr %57, i64 %59
  store float %54, ptr %60, align 4, !tbaa !14
  call void @llvm.lifetime.end.p0(i64 4, ptr %13) #16
  call void @llvm.lifetime.end.p0(i64 4, ptr %12) #16
  call void @llvm.lifetime.end.p0(i64 4, ptr %11) #16
  br label %61

61:                                               ; preds = %29
  %62 = load i32, ptr %7, align 4, !tbaa !8
  %63 = add i32 %62, 1
  store i32 %63, ptr %7, align 4, !tbaa !8
  br label %25, !llvm.loop !485

64:                                               ; preds = %25
  call void @llvm.lifetime.end.p0(i64 4, ptr %10) #16
  call void @llvm.lifetime.end.p0(i64 4, ptr %9) #16
  call void @llvm.lifetime.end.p0(i64 4, ptr %8) #16
  call void @llvm.lifetime.end.p0(i64 4, ptr %7) #16
  ret void
}

; Function Attrs: nounwind uwtable
define i32 @ma_hpf1_process_pcm_frames(ptr noundef %0, ptr noundef %1, ptr noundef %2, i64 noundef %3) #0 {
  %5 = alloca i32, align 4
  %6 = alloca ptr, align 8
  %7 = alloca ptr, align 8
  %8 = alloca ptr, align 8
  %9 = alloca i64, align 8
  %10 = alloca i32, align 4
  %11 = alloca i32, align 4
  %12 = alloca ptr, align 8
  %13 = alloca ptr, align 8
  %14 = alloca ptr, align 8
  %15 = alloca ptr, align 8
  store ptr %0, ptr %6, align 8, !tbaa !25
  store ptr %1, ptr %7, align 8, !tbaa !25
  store ptr %2, ptr %8, align 8, !tbaa !25
  store i64 %3, ptr %9, align 8, !tbaa !47
  call void @llvm.lifetime.start.p0(i64 4, ptr %10) #16
  %16 = load ptr, ptr %6, align 8, !tbaa !25
  %17 = icmp eq ptr %16, null
  br i1 %17, label %24, label %18

18:                                               ; preds = %4
  %19 = load ptr, ptr %7, align 8, !tbaa !25
  %20 = icmp eq ptr %19, null
  br i1 %20, label %24, label %21

21:                                               ; preds = %18
  %22 = load ptr, ptr %8, align 8, !tbaa !25
  %23 = icmp eq ptr %22, null
  br i1 %23, label %24, label %25

24:                                               ; preds = %21, %18, %4
  store i32 -2, ptr %5, align 4
  store i32 1, ptr %11, align 4
  br label %94

25:                                               ; preds = %21
  %26 = load ptr, ptr %6, align 8, !tbaa !25
  %27 = getelementptr inbounds nuw %struct.ma_hpf1, ptr %26, i32 0, i32 0
  %28 = load i32, ptr %27, align 8, !tbaa !437
  %29 = icmp eq i32 %28, 5
  br i1 %29, label %30, label %58

30:                                               ; preds = %25
  call void @llvm.lifetime.start.p0(i64 8, ptr %12) #16
  %31 = load ptr, ptr %7, align 8, !tbaa !25
  store ptr %31, ptr %12, align 8, !tbaa !353
  call void @llvm.lifetime.start.p0(i64 8, ptr %13) #16
  %32 = load ptr, ptr %8, align 8, !tbaa !25
  store ptr %32, ptr %13, align 8, !tbaa !353
  store i32 0, ptr %10, align 4, !tbaa !8
  br label %33

33:                                               ; preds = %54, %30
  %34 = load i32, ptr %10, align 4, !tbaa !8
  %35 = zext i32 %34 to i64
  %36 = load i64, ptr %9, align 8, !tbaa !47
  %37 = icmp ult i64 %35, %36
  br i1 %37, label %38, label %57

38:                                               ; preds = %33
  %39 = load ptr, ptr %6, align 8, !tbaa !25
  %40 = load ptr, ptr %12, align 8, !tbaa !353
  %41 = load ptr, ptr %13, align 8, !tbaa !353
  call void @ma_hpf1_process_pcm_frame_f32(ptr noundef %39, ptr noundef %40, ptr noundef %41)
  %42 = load ptr, ptr %6, align 8, !tbaa !25
  %43 = getelementptr inbounds nuw %struct.ma_hpf1, ptr %42, i32 0, i32 1
  %44 = load i32, ptr %43, align 4, !tbaa !438
  %45 = load ptr, ptr %12, align 8, !tbaa !353
  %46 = zext i32 %44 to i64
  %47 = getelementptr inbounds nuw float, ptr %45, i64 %46
  store ptr %47, ptr %12, align 8, !tbaa !353
  %48 = load ptr, ptr %6, align 8, !tbaa !25
  %49 = getelementptr inbounds nuw %struct.ma_hpf1, ptr %48, i32 0, i32 1
  %50 = load i32, ptr %49, align 4, !tbaa !438
  %51 = load ptr, ptr %13, align 8, !tbaa !353
  %52 = zext i32 %50 to i64
  %53 = getelementptr inbounds nuw float, ptr %51, i64 %52
  store ptr %53, ptr %13, align 8, !tbaa !353
  br label %54

54:                                               ; preds = %38
  %55 = load i32, ptr %10, align 4, !tbaa !8
  %56 = add i32 %55, 1
  store i32 %56, ptr %10, align 4, !tbaa !8
  br label %33, !llvm.loop !483

57:                                               ; preds = %33
  call void @llvm.lifetime.end.p0(i64 8, ptr %13) #16
  call void @llvm.lifetime.end.p0(i64 8, ptr %12) #16
  br label %93

58:                                               ; preds = %25
  %59 = load ptr, ptr %6, align 8, !tbaa !25
  %60 = getelementptr inbounds nuw %struct.ma_hpf1, ptr %59, i32 0, i32 0
  %61 = load i32, ptr %60, align 8, !tbaa !437
  %62 = icmp eq i32 %61, 2
  br i1 %62, label %63, label %91

63:                                               ; preds = %58
  call void @llvm.lifetime.start.p0(i64 8, ptr %14) #16
  %64 = load ptr, ptr %7, align 8, !tbaa !25
  store ptr %64, ptr %14, align 8, !tbaa !360
  call void @llvm.lifetime.start.p0(i64 8, ptr %15) #16
  %65 = load ptr, ptr %8, align 8, !tbaa !25
  store ptr %65, ptr %15, align 8, !tbaa !360
  store i32 0, ptr %10, align 4, !tbaa !8
  br label %66

66:                                               ; preds = %87, %63
  %67 = load i32, ptr %10, align 4, !tbaa !8
  %68 = zext i32 %67 to i64
  %69 = load i64, ptr %9, align 8, !tbaa !47
  %70 = icmp ult i64 %68, %69
  br i1 %70, label %71, label %90

71:                                               ; preds = %66
  %72 = load ptr, ptr %6, align 8, !tbaa !25
  %73 = load ptr, ptr %14, align 8, !tbaa !360
  %74 = load ptr, ptr %15, align 8, !tbaa !360
  call void @ma_hpf1_process_pcm_frame_s16(ptr noundef %72, ptr noundef %73, ptr noundef %74)
  %75 = load ptr, ptr %6, align 8, !tbaa !25
  %76 = getelementptr inbounds nuw %struct.ma_hpf1, ptr %75, i32 0, i32 1
  %77 = load i32, ptr %76, align 4, !tbaa !438
  %78 = load ptr, ptr %14, align 8, !tbaa !360
  %79 = zext i32 %77 to i64
  %80 = getelementptr inbounds nuw i16, ptr %78, i64 %79
  store ptr %80, ptr %14, align 8, !tbaa !360
  %81 = load ptr, ptr %6, align 8, !tbaa !25
  %82 = getelementptr inbounds nuw %struct.ma_hpf1, ptr %81, i32 0, i32 1
  %83 = load i32, ptr %82, align 4, !tbaa !438
  %84 = load ptr, ptr %15, align 8, !tbaa !360
  %85 = zext i32 %83 to i64
  %86 = getelementptr inbounds nuw i16, ptr %84, i64 %85
  store ptr %86, ptr %15, align 8, !tbaa !360
  br label %87

87:                                               ; preds = %71
  %88 = load i32, ptr %10, align 4, !tbaa !8
  %89 = add i32 %88, 1
  store i32 %89, ptr %10, align 4, !tbaa !8
  br label %66, !llvm.loop !484

90:                                               ; preds = %66
  call void @llvm.lifetime.end.p0(i64 8, ptr %15) #16
  call void @llvm.lifetime.end.p0(i64 8, ptr %14) #16
  br label %92

91:                                               ; preds = %58
  store i32 -2, ptr %5, align 4
  store i32 1, ptr %11, align 4
  br label %94

92:                                               ; preds = %90
  br label %93

93:                                               ; preds = %92, %57
  store i32 0, ptr %5, align 4
  store i32 1, ptr %11, align 4
  br label %94

94:                                               ; preds = %93, %91, %24
  call void @llvm.lifetime.end.p0(i64 4, ptr %10) #16
  %95 = load i32, ptr %5, align 4
  ret i32 %95
}