; Function Attrs: nofree norecurse nosync nounwind memory(readwrite, inaccessiblemem: write) uwtable
define range(i32 -2, 1) i32 @ma_hpf1_process_pcm_frames(ptr noundef readonly captures(address_is_null) %0, ptr noundef writeonly captures(address_is_null) %1, ptr noundef readonly captures(address_is_null) %2, i64 noundef %3) local_unnamed_addr #35 {
  %5 = icmp eq ptr %0, null
  %6 = icmp eq ptr %1, null
  %or.cond = or i1 %5, %6
  %7 = icmp eq ptr %2, null
  %or.cond3 = or i1 %or.cond, %7
  br i1 %or.cond3, label %.loopexit, label %8

8:                                                ; preds = %4
  %9 = load i32, ptr %0, align 8, !tbaa !471
  switch i32 %9, label %.loopexit [
    i32 5, label %.preheader
    i32 2, label %.preheader42
  ]

.preheader42:                                     ; preds = %8
  %.not = icmp eq i64 %3, 0
  br i1 %.not, label %.loopexit, label %.lr.ph

.lr.ph:                                           ; preds = %.preheader42
  %10 = getelementptr inbounds nuw i8, ptr %0, i64 4
  %11 = getelementptr inbounds nuw i8, ptr %0, i64 8
  %12 = getelementptr inbounds nuw i8, ptr %0, i64 16
  %.pre = load i32, ptr %10, align 4, !tbaa !472
  br label %39

.preheader:                                       ; preds = %8
  %.not53 = icmp eq i64 %3, 0
  br i1 %.not53, label %.loopexit, label %.lr.ph52

.lr.ph52:                                         ; preds = %.preheader
  %13 = getelementptr inbounds nuw i8, ptr %0, i64 4
  %14 = getelementptr inbounds nuw i8, ptr %0, i64 8
  %15 = getelementptr inbounds nuw i8, ptr %0, i64 16
  %.pre61 = load i32, ptr %13, align 4, !tbaa !472
  br label %16

16:                                               ; preds = %.lr.ph52, %ma_hpf1_process_pcm_frame_f32.exit
  %17 = phi i32 [ %.pre61, %.lr.ph52 ], [ %32, %ma_hpf1_process_pcm_frame_f32.exit ]
  %.03351 = phi ptr [ %2, %.lr.ph52 ], [ %35, %ma_hpf1_process_pcm_frame_f32.exit ]
  %.03450 = phi ptr [ %1, %.lr.ph52 ], [ %34, %ma_hpf1_process_pcm_frame_f32.exit ]
  %.03549 = phi i32 [ 0, %.lr.ph52 ], [ %36, %ma_hpf1_process_pcm_frame_f32.exit ]
  %18 = load float, ptr %14, align 8, !tbaa !7
  %19 = fsub float 1.000000e+00, %18
  %20 = fsub float 1.000000e+00, %19
  %21 = icmp ne i32 %17, 0
  tail call void @llvm.assume(i1 %21)
  %wide.trip.count59 = zext i32 %17 to i64
  br label %22

22:                                               ; preds = %16, %22
  %indvars.iv56 = phi i64 [ 0, %16 ], [ %indvars.iv.next57, %22 ]
  %23 = load ptr, ptr %15, align 8, !tbaa !470
  %24 = getelementptr inbounds nuw %union.ma_biquad_coefficient, ptr %23, i64 %indvars.iv56
  %25 = load float, ptr %24, align 4, !tbaa !7
  %26 = getelementptr inbounds nuw float, ptr %.03351, i64 %indvars.iv56
  %27 = load float, ptr %26, align 4, !tbaa !339
  %28 = fneg float %25
  %29 = fmul float %19, %28
  %30 = tail call float @llvm.fmuladd.f32(float %20, float %27, float %29)
  %31 = getelementptr inbounds nuw float, ptr %.03450, i64 %indvars.iv56
  store float %30, ptr %31, align 4, !tbaa !339
  store float %30, ptr %24, align 4, !tbaa !7
  %indvars.iv.next57 = add nuw nsw i64 %indvars.iv56, 1
  %exitcond60.not = icmp eq i64 %indvars.iv.next57, %wide.trip.count59
  br i1 %exitcond60.not, label %ma_hpf1_process_pcm_frame_f32.exit, label %22, !llvm.loop !538

ma_hpf1_process_pcm_frame_f32.exit:               ; preds = %22
  %32 = load i32, ptr %13, align 4, !tbaa !472
  %33 = zext i32 %32 to i64
  %34 = getelementptr inbounds nuw float, ptr %.03450, i64 %33
  %35 = getelementptr inbounds nuw float, ptr %.03351, i64 %33
  %36 = add i32 %.03549, 1
  %37 = zext i32 %36 to i64
  %38 = icmp ugt i64 %3, %37
  br i1 %38, label %16, label %.loopexit, !llvm.loop !539

39:                                               ; preds = %.lr.ph, %ma_hpf1_process_pcm_frame_s16.exit
  %40 = phi i32 [ %.pre, %.lr.ph ], [ %55, %ma_hpf1_process_pcm_frame_s16.exit ]
  %.047 = phi ptr [ %2, %.lr.ph ], [ %58, %ma_hpf1_process_pcm_frame_s16.exit ]
  %.03246 = phi ptr [ %1, %.lr.ph ], [ %57, %ma_hpf1_process_pcm_frame_s16.exit ]
  %.145 = phi i32 [ 0, %.lr.ph ], [ %59, %ma_hpf1_process_pcm_frame_s16.exit ]
  %41 = load i32, ptr %11, align 8, !tbaa !7
  %.neg.i = add i32 %41, -16384
  %42 = icmp ne i32 %40, 0
  tail call void @llvm.assume(i1 %42)
  %wide.trip.count = zext i32 %40 to i64
  br label %43

43:                                               ; preds = %39, %43
  %indvars.iv = phi i64 [ 0, %39 ], [ %indvars.iv.next, %43 ]
  %44 = load ptr, ptr %12, align 8, !tbaa !470
  %45 = getelementptr inbounds nuw %union.ma_biquad_coefficient, ptr %44, i64 %indvars.iv
  %46 = load i32, ptr %45, align 4, !tbaa !7
  %47 = getelementptr inbounds nuw i16, ptr %.047, i64 %indvars.iv
  %48 = load i16, ptr %47, align 2, !tbaa !334
  %49 = sext i16 %48 to i32
  %50 = mul nsw i32 %41, %49
  %.neg20.i = mul i32 %46, %.neg.i
  %51 = add i32 %50, %.neg20.i
  %52 = ashr i32 %51, 14
  %53 = trunc i32 %52 to i16
  %54 = getelementptr inbounds nuw i16, ptr %.03246, i64 %indvars.iv
  store i16 %53, ptr %54, align 2, !tbaa !334
  store i32 %52, ptr %45, align 4, !tbaa !7
  %indvars.iv.next = add nuw nsw i64 %indvars.iv, 1
  %exitcond.not = icmp eq i64 %indvars.iv.next, %wide.trip.count
  br i1 %exitcond.not, label %ma_hpf1_process_pcm_frame_s16.exit, label %43, !llvm.loop !540

ma_hpf1_process_pcm_frame_s16.exit:               ; preds = %43
  %55 = load i32, ptr %10, align 4, !tbaa !472
  %56 = zext i32 %55 to i64
  %57 = getelementptr inbounds nuw i16, ptr %.03246, i64 %56
  %58 = getelementptr inbounds nuw i16, ptr %.047, i64 %56
  %59 = add i32 %.145, 1
  %60 = zext i32 %59 to i64
  %61 = icmp ugt i64 %3, %60
  br i1 %61, label %39, label %.loopexit, !llvm.loop !541

.loopexit:                                        ; preds = %ma_hpf1_process_pcm_frame_s16.exit, %ma_hpf1_process_pcm_frame_f32.exit, %.preheader42, %.preheader, %8, %4
  %.036 = phi i32 [ -2, %4 ], [ -2, %8 ], [ 0, %.preheader ], [ 0, %.preheader42 ], [ 0, %ma_hpf1_process_pcm_frame_f32.exit ], [ 0, %ma_hpf1_process_pcm_frame_s16.exit ]
  ret i32 %.036
}